; Function Attrs: mustprogress nofree norecurse nosync nounwind willreturn memory(read, inaccessiblemem: none) uwtable
define range(i32 16, 22) i32 @Gia_ManEncodeFanout(ptr noundef readonly captures(none) %0, ptr noundef %1, i32 noundef %2) local_unnamed_addr #12 {
  %.val11 = load i64, ptr %1, align 4
  %4 = and i64 %.val11, 2147483648
  %.not.i.i = icmp eq i64 %4, 0
  %5 = and i64 %.val11, 536870911
  %6 = icmp eq i64 %5, 536870911
  %narrow.i.not.i = or i1 %.not.i.i, %6
  br i1 %narrow.i.not.i, label %Gia_ObjIsPo.exit.thread, label %Gia_ObjIsPo.exit

Gia_ObjIsPo.exit:                                 ; preds = %3
  %7 = lshr i64 %.val11, 32
  %8 = trunc nuw i64 %7 to i32
  %9 = and i32 %8, 536870911
  %10 = getelementptr i8, ptr %0, i64 16
  %.val4.i = load i32, ptr %10, align 8
  %11 = getelementptr i8, ptr %0, i64 72
  %.val5.i = load ptr, ptr %11, align 8
  %12 = getelementptr i8, ptr %.val5.i, i64 4
  %.val5.val.i = load i32, ptr %12, align 4
  %13 = sub nsw i32 %.val5.val.i, %.val4.i
  %.not = icmp slt i32 %9, %13
  br i1 %.not, label %Gia_ObjIsMux.exit.thread, label %Gia_ObjIsPo.exit.thread

Gia_ObjIsPo.exit.thread:                          ; preds = %3, %Gia_ObjIsPo.exit
  %.not.i = icmp ne i64 %4, 0
  %14 = icmp ne i64 %5, 536870911
  %narrow.i = and i1 %.not.i, %14
  br i1 %narrow.i, label %Gia_ObjIsMux.exit.thread, label %15

15:                                               ; preds = %Gia_ObjIsPo.exit.thread
  %narrow.i.not.i15 = or i1 %.not.i, %6
  br i1 %narrow.i.not.i15, label %Gia_ObjIsXor.exit.thread, label %Gia_ObjIsXor.exit

Gia_ObjIsXor.exit:                                ; preds = %15
  %16 = trunc i64 %.val11 to i32
  %17 = and i32 %16, 536870911
  %18 = lshr i64 %.val11, 32
  %19 = trunc nuw i64 %18 to i32
  %20 = and i32 %19, 536870911
  %.not20 = icmp samesign ult i32 %17, %20
  br i1 %.not20, label %Gia_ObjIsMux.exit.thread, label %Gia_ObjIsXor.exit.thread

Gia_ObjIsXor.exit.thread:                         ; preds = %15, %Gia_ObjIsXor.exit
  %21 = getelementptr i8, ptr %0, i64 40
  %.val13 = load ptr, ptr %21, align 8
  %.not.i.i16 = icmp eq ptr %.val13, null
  br i1 %.not.i.i16, label %Gia_ObjIsMux.exit.thread, label %Gia_ObjIsMux.exit

Gia_ObjIsMux.exit:                                ; preds = %Gia_ObjIsXor.exit.thread
  %22 = getelementptr i8, ptr %0, i64 32
  %.val12 = load ptr, ptr %22, align 8
  %23 = ptrtoint ptr %1 to i64
  %24 = ptrtoint ptr %.val12 to i64
  %25 = sub i64 %23, %24
  %26 = sdiv exact i64 %25, 12
  %sext.i = shl i64 %26, 32
  %27 = ashr exact i64 %sext.i, 30
  %28 = getelementptr inbounds i8, ptr %.val13, i64 %27
  %29 = load i32, ptr %28, align 4
  %.not21 = icmp eq i32 %29, 0
  br i1 %.not21, label %Gia_ObjIsMux.exit.thread, label %30

30:                                               ; preds = %Gia_ObjIsMux.exit
  %31 = icmp eq i32 %2, 2
  %32 = select i1 %31, i32 19, i32 20
  br label %Gia_ObjIsMux.exit.thread

Gia_ObjIsMux.exit.thread:                         ; preds = %Gia_ObjIsXor.exit.thread, %Gia_ObjIsMux.exit, %Gia_ObjIsXor.exit, %Gia_ObjIsPo.exit.thread, %Gia_ObjIsPo.exit, %30
  %.0 = phi i32 [ %32, %30 ], [ 16, %Gia_ObjIsPo.exit ], [ 17, %Gia_ObjIsPo.exit.thread ], [ 18, %Gia_ObjIsXor.exit ], [ 21, %Gia_ObjIsMux.exit ], [ 21, %Gia_ObjIsXor.exit.thread ]
  ret i32 %.0
}